target datalayout = "e-m:e-p270:32:32-p271:32:32-p272:64:64-i64:64-i128:128-f80:128-n8:16:32:64-S128"
target triple = "x86_64-pc-linux-gnu"

%struct.SC_Lib_ = type { ptr, ptr, ptr, ptr, float, i32, float, i32, %struct.Vec_Ptr_t_, %struct.Vec_Ptr_t_, %struct.Vec_Ptr_t_, %struct.Vec_Ptr_t_, %struct.Vec_Ptr_t_, ptr, i32 }
%struct.Vec_Ptr_t_ = type { i32, i32, ptr }
%struct.SC_Cell_ = type { ptr, i32, i32, i32, i32, float, float, i32, i32, i32, %struct.Vec_Ptr_t_, i32, i32, ptr, ptr, ptr, ptr, i32, i32 }
%struct.Vec_Str_t_ = type { i32, i32, ptr }

@.str.6 = private unnamed_addr constant [12 x i8] c"%s__and__%s\00", align 1
@.str.7 = private unnamed_addr constant [66 x i8] c"Updated library \22%s\22 with additional %d cells from library \22%s\22.\0A\00", align 1

; Function Attrs: inlinehint nounwind uwtable
define internal ptr @Vec_PtrEntry(ptr noundef %0, i32 noundef %1) #3 {
  %3 = alloca ptr, align 8
  %4 = alloca i32, align 4
  store ptr %0, ptr %3, align 8, !tbaa !96
  store i32 %1, ptr %4, align 4, !tbaa !53
  %5 = load ptr, ptr %3, align 8, !tbaa !96
  %6 = getelementptr inbounds nuw %struct.Vec_Ptr_t_, ptr %5, i32 0, i32 2
  %7 = load ptr, ptr %6, align 8, !tbaa !118
  %8 = load i32, ptr %4, align 4, !tbaa !53
  %9 = sext i32 %8 to i64
  %10 = getelementptr inbounds ptr, ptr %7, i64 %9
  %11 = load ptr, ptr %10, align 8, !tbaa !3
  ret ptr %11
}

; Function Attrs: inlinehint nounwind uwtable
define internal i32 @Vec_PtrSize(ptr noundef %0) #3 {
  %2 = alloca ptr, align 8
  store ptr %0, ptr %2, align 8, !tbaa !96
  %3 = load ptr, ptr %2, align 8, !tbaa !96
  %4 = getelementptr inbounds nuw %struct.Vec_Ptr_t_, ptr %3, i32 0, i32 1
  %5 = load i32, ptr %4, align 4, !tbaa !117
  ret i32 %5
}

; Function Attrs: inlinehint nounwind uwtable
define internal void @Vec_StrFree(ptr noundef %0) #3 {
  %2 = alloca ptr, align 8
  store ptr %0, ptr %2, align 8, !tbaa !76
  %3 = load ptr, ptr %2, align 8, !tbaa !76
  %4 = getelementptr inbounds nuw %struct.Vec_Str_t_, ptr %3, i32 0, i32 2
  %5 = load ptr, ptr %4, align 8, !tbaa !113
  %6 = icmp ne ptr %5, null
  br i1 %6, label %7, label %13

7:                                                ; preds = %1
  %8 = load ptr, ptr %2, align 8, !tbaa !76
  %9 = getelementptr inbounds nuw %struct.Vec_Str_t_, ptr %8, i32 0, i32 2
  %10 = load ptr, ptr %9, align 8, !tbaa !113
  call void @free(ptr noundef %10) #11
  %11 = load ptr, ptr %2, align 8, !tbaa !76
  %12 = getelementptr inbounds nuw %struct.Vec_Str_t_, ptr %11, i32 0, i32 2
  store ptr null, ptr %12, align 8, !tbaa !113
  br label %14

13:                                               ; preds = %1
  br label %14

14:                                               ; preds = %13, %7
  %15 = load ptr, ptr %2, align 8, !tbaa !76
  %16 = icmp ne ptr %15, null
  br i1 %16, label %17, label %19

17:                                               ; preds = %14
  %18 = load ptr, ptr %2, align 8, !tbaa !76
  call void @free(ptr noundef %18) #11
  store ptr null, ptr %2, align 8, !tbaa !76
  br label %20

19:                                               ; preds = %14
  br label %20

20:                                               ; preds = %19, %17
  ret void
}

; Function Attrs: inlinehint nounwind uwtable
define internal ptr @Abc_UtilStrsav(ptr noundef %0) #3 {
  %2 = alloca ptr, align 8
  store ptr %0, ptr %2, align 8, !tbaa !106
  %3 = load ptr, ptr %2, align 8, !tbaa !106
  %4 = icmp ne ptr %3, null
  br i1 %4, label %5, label %13

5:                                                ; preds = %1
  %6 = load ptr, ptr %2, align 8, !tbaa !106
  %7 = call i64 @strlen(ptr noundef %6) #13
  %8 = add i64 %7, 1
  %9 = mul i64 1, %8
  %10 = call noalias ptr @malloc(i64 noundef %9) #12
  %11 = load ptr, ptr %2, align 8, !tbaa !106
  %12 = call ptr @strcpy(ptr noundef %10, ptr noundef %11) #11
  br label %14

13:                                               ; preds = %1
  br label %14

14:                                               ; preds = %13, %5
  %15 = phi ptr [ %12, %5 ], [ null, %13 ]
  ret ptr %15
}

; Function Attrs: nounwind uwtable
define i32 @Abc_SclCountValidCells(ptr noundef %0) #0 {
  %2 = alloca ptr, align 8
  %3 = alloca ptr, align 8
  %4 = alloca i32, align 4
  %5 = alloca i32, align 4
  store ptr %0, ptr %2, align 8, !tbaa !9
  call void @llvm.lifetime.start.p0(i64 8, ptr %3) #11
  call void @llvm.lifetime.start.p0(i64 4, ptr %4) #11
  call void @llvm.lifetime.start.p0(i64 4, ptr %5) #11
  store i32 0, ptr %5, align 4, !tbaa !53
  store i32 0, ptr %4, align 4, !tbaa !53
  br label %6

6:                                                ; preds = %33, %1
  %7 = load i32, ptr %4, align 4, !tbaa !53
  %8 = load ptr, ptr %2, align 8, !tbaa !9
  %9 = getelementptr inbounds nuw %struct.SC_Lib_, ptr %8, i32 0, i32 11
  %10 = call i32 @Vec_PtrSize(ptr noundef %9)
  %11 = icmp slt i32 %7, %10
  br i1 %11, label %12, label %17

12:                                               ; preds = %6
  %13 = load ptr, ptr %2, align 8, !tbaa !9
  %14 = getelementptr inbounds nuw %struct.SC_Lib_, ptr %13, i32 0, i32 11
  %15 = load i32, ptr %4, align 4, !tbaa !53
  %16 = call ptr @Vec_PtrEntry(ptr noundef %14, i32 noundef %15)
  store ptr %16, ptr %3, align 8, !tbaa !26
  br label %17

17:                                               ; preds = %12, %6
  %18 = phi i1 [ false, %6 ], [ true, %12 ]
  br i1 %18, label %19, label %36

19:                                               ; preds = %17
  %20 = load ptr, ptr %3, align 8, !tbaa !26
  %21 = getelementptr inbounds nuw %struct.SC_Cell_, ptr %20, i32 0, i32 3
  %22 = load i32, ptr %21, align 8, !tbaa !114
  %23 = icmp ne i32 %22, 0
  br i1 %23, label %32, label %24

24:                                               ; preds = %19
  %25 = load ptr, ptr %3, align 8, !tbaa !26
  %26 = getelementptr inbounds nuw %struct.SC_Cell_, ptr %25, i32 0, i32 4
  %27 = load i32, ptr %26, align 4, !tbaa !115
  %28 = icmp ne i32 %27, 0
  br i1 %28, label %32, label %29

29:                                               ; preds = %24
  %30 = load i32, ptr %5, align 4, !tbaa !53
  %31 = add nsw i32 %30, 1
  store i32 %31, ptr %5, align 4, !tbaa !53
  br label %32

32:                                               ; preds = %29, %24, %19
  br label %33

33:                                               ; preds = %32
  %34 = load i32, ptr %4, align 4, !tbaa !53
  %35 = add nsw i32 %34, 1
  store i32 %35, ptr %4, align 4, !tbaa !53
  br label %6, !llvm.loop !116

36:                                               ; preds = %17
  %37 = load i32, ptr %5, align 4, !tbaa !53
  call void @llvm.lifetime.end.p0(i64 4, ptr %5) #11
  call void @llvm.lifetime.end.p0(i64 4, ptr %4) #11
  call void @llvm.lifetime.end.p0(i64 8, ptr %3) #11
  ret i32 %37
}

; Function Attrs: inlinehint nounwind uwtable
define internal ptr @Vec_StrAlloc(i32 noundef %0) #3 {
  %2 = alloca i32, align 4
  %3 = alloca ptr, align 8
  store i32 %0, ptr %2, align 4, !tbaa !53
  call void @llvm.lifetime.start.p0(i64 8, ptr %3) #11
  %4 = call noalias ptr @malloc(i64 noundef 16) #12
  store ptr %4, ptr %3, align 8, !tbaa !76
  %5 = load i32, ptr %2, align 4, !tbaa !53
  %6 = icmp sgt i32 %5, 0
  br i1 %6, label %7, label %11

7:                                                ; preds = %1
  %8 = load i32, ptr %2, align 4, !tbaa !53
  %9 = icmp slt i32 %8, 16
  br i1 %9, label %10, label %11

10:                                               ; preds = %7
  store i32 16, ptr %2, align 4, !tbaa !53
  br label %11

11:                                               ; preds = %10, %7, %1
  %12 = load ptr, ptr %3, align 8, !tbaa !76
  %13 = getelementptr inbounds nuw %struct.Vec_Str_t_, ptr %12, i32 0, i32 1
  store i32 0, ptr %13, align 4, !tbaa !111
  %14 = load i32, ptr %2, align 4, !tbaa !53
  %15 = load ptr, ptr %3, align 8, !tbaa !76
  %16 = getelementptr inbounds nuw %struct.Vec_Str_t_, ptr %15, i32 0, i32 0
  store i32 %14, ptr %16, align 8, !tbaa !109
  %17 = load ptr, ptr %3, align 8, !tbaa !76
  %18 = getelementptr inbounds nuw %struct.Vec_Str_t_, ptr %17, i32 0, i32 0
  %19 = load i32, ptr %18, align 8, !tbaa !109
  %20 = icmp ne i32 %19, 0
  br i1 %20, label %21, label %28

21:                                               ; preds = %11
  %22 = load ptr, ptr %3, align 8, !tbaa !76
  %23 = getelementptr inbounds nuw %struct.Vec_Str_t_, ptr %22, i32 0, i32 0
  %24 = load i32, ptr %23, align 8, !tbaa !109
  %25 = sext i32 %24 to i64
  %26 = mul i64 1, %25
  %27 = call noalias ptr @malloc(i64 noundef %26) #12
  br label %29

28:                                               ; preds = %11
  br label %29

29:                                               ; preds = %28, %21
  %30 = phi ptr [ %27, %21 ], [ null, %28 ]
  %31 = load ptr, ptr %3, align 8, !tbaa !76
  %32 = getelementptr inbounds nuw %struct.Vec_Str_t_, ptr %31, i32 0, i32 2
  store ptr %30, ptr %32, align 8, !tbaa !113
  %33 = load ptr, ptr %3, align 8, !tbaa !76
  call void @llvm.lifetime.end.p0(i64 8, ptr %3) #11
  ret ptr %33
}

; Function Attrs: nounwind uwtable
define ptr @Abc_SclMergeLibraries(ptr noundef %0, ptr noundef %1, i32 noundef %2) #0 {
  %4 = alloca ptr, align 8
  %5 = alloca ptr, align 8
  %6 = alloca i32, align 4
  %7 = alloca ptr, align 8
  %8 = alloca i32, align 4
  %9 = alloca ptr, align 8
  store ptr %0, ptr %4, align 8, !tbaa !9
  store ptr %1, ptr %5, align 8, !tbaa !9
  store i32 %2, ptr %6, align 4, !tbaa !53
  call void @llvm.lifetime.start.p0(i64 8, ptr %7) #11
  %10 = call ptr @Vec_StrAlloc(i32 noundef 10000)
  store ptr %10, ptr %7, align 8, !tbaa !76
  call void @llvm.lifetime.start.p0(i64 4, ptr %8) #11
  %11 = load ptr, ptr %5, align 8, !tbaa !9
  %12 = call i32 @Abc_SclCountValidCells(ptr noundef %11)
  store i32 %12, ptr %8, align 4, !tbaa !53
  %13 = load ptr, ptr %7, align 8, !tbaa !76
  %14 = load ptr, ptr %4, align 8, !tbaa !9
  %15 = load i32, ptr %8, align 4, !tbaa !53
  %16 = load i32, ptr %6, align 4, !tbaa !53
  call void @Abc_SclWriteLibrary(ptr noundef %13, ptr noundef %14, i32 noundef %15, i32 noundef %16)
  %17 = load ptr, ptr %7, align 8, !tbaa !76
  %18 = load ptr, ptr %5, align 8, !tbaa !9
  %19 = load i32, ptr %6, align 4, !tbaa !53
  %20 = icmp ne i32 %19, 0
  %21 = select i1 %20, i32 2, i32 0
  call void @Abc_SclWriteLibraryCellsOnly(ptr noundef %17, ptr noundef %18, i32 noundef %21)
  call void @llvm.lifetime.start.p0(i64 8, ptr %9) #11
  %22 = load ptr, ptr %7, align 8, !tbaa !76
  %23 = call ptr @Abc_SclReadFromStr(ptr noundef %22)
  store ptr %23, ptr %9, align 8, !tbaa !9
  %24 = load ptr, ptr %4, align 8, !tbaa !9
  %25 = getelementptr inbounds nuw %struct.SC_Lib_, ptr %24, i32 0, i32 1
  %26 = load ptr, ptr %25, align 8, !tbaa !112
  %27 = call ptr @Abc_UtilStrsav(ptr noundef %26)
  %28 = load ptr, ptr %9, align 8, !tbaa !9
  %29 = getelementptr inbounds nuw %struct.SC_Lib_, ptr %28, i32 0, i32 1
  store ptr %27, ptr %29, align 8, !tbaa !112
  %30 = load ptr, ptr %4, align 8, !tbaa !9
  %31 = getelementptr inbounds nuw %struct.SC_Lib_, ptr %30, i32 0, i32 0
  %32 = load ptr, ptr %31, align 8, !tbaa !11
  %33 = call i64 @strlen(ptr noundef %32) #13
  %34 = load ptr, ptr %5, align 8, !tbaa !9
  %35 = getelementptr inbounds nuw %struct.SC_Lib_, ptr %34, i32 0, i32 0
  %36 = load ptr, ptr %35, align 8, !tbaa !11
  %37 = call i64 @strlen(ptr noundef %36) #13
  %38 = add i64 %33, %37
  %39 = add i64 %38, 10
  %40 = mul i64 1, %39
  %41 = call noalias ptr @malloc(i64 noundef %40) #12
  %42 = load ptr, ptr %9, align 8, !tbaa !9
  %43 = getelementptr inbounds nuw %struct.SC_Lib_, ptr %42, i32 0, i32 0
  store ptr %41, ptr %43, align 8, !tbaa !11
  %44 = load ptr, ptr %9, align 8, !tbaa !9
  %45 = getelementptr inbounds nuw %struct.SC_Lib_, ptr %44, i32 0, i32 0
  %46 = load ptr, ptr %45, align 8, !tbaa !11
  %47 = load ptr, ptr %4, align 8, !tbaa !9
  %48 = getelementptr inbounds nuw %struct.SC_Lib_, ptr %47, i32 0, i32 0
  %49 = load ptr, ptr %48, align 8, !tbaa !11
  %50 = load ptr, ptr %5, align 8, !tbaa !9
  %51 = getelementptr inbounds nuw %struct.SC_Lib_, ptr %50, i32 0, i32 0
  %52 = load ptr, ptr %51, align 8, !tbaa !11
  %53 = call i32 (ptr, ptr, ...) @sprintf(ptr noundef %46, ptr noundef @.str.6, ptr noundef %49, ptr noundef %52) #11
  %54 = load ptr, ptr %7, align 8, !tbaa !76
  call void @Vec_StrFree(ptr noundef %54)
  %55 = load ptr, ptr %4, align 8, !tbaa !9
  %56 = getelementptr inbounds nuw %struct.SC_Lib_, ptr %55, i32 0, i32 0
  %57 = load ptr, ptr %56, align 8, !tbaa !11
  %58 = load i32, ptr %8, align 4, !tbaa !53
  %59 = load ptr, ptr %5, align 8, !tbaa !9
  %60 = getelementptr inbounds nuw %struct.SC_Lib_, ptr %59, i32 0, i32 0
  %61 = load ptr, ptr %60, align 8, !tbaa !11
  %62 = call i32 (ptr, ...) @printf(ptr noundef @.str.7, ptr noundef %57, i32 noundef %58, ptr noundef %61)
  %63 = load ptr, ptr %9, align 8, !tbaa !9
  call void @llvm.lifetime.end.p0(i64 8, ptr %9) #11
  call void @llvm.lifetime.end.p0(i64 4, ptr %8) #11
  call void @llvm.lifetime.end.p0(i64 8, ptr %7) #11
  ret ptr %63
}