; Function Attrs: nounwind uwtable
define noundef ptr @Abc_SclMergeLibraries(ptr noundef readonly captures(none) %0, ptr noundef readonly captures(none) %1, i32 noundef %2) local_unnamed_addr #0 {
  %4 = tail call noalias dereferenceable_or_null(16) ptr @malloc(i64 noundef 16) #21
  %5 = getelementptr inbounds nuw i8, ptr %4, i64 4
  store i32 0, ptr %5, align 4, !tbaa !98
  store i32 10000, ptr %4, align 8, !tbaa !97
  %6 = tail call noalias dereferenceable_or_null(10000) ptr @malloc(i64 noundef 10000) #21
  %7 = getelementptr inbounds nuw i8, ptr %4, i64 8
  store ptr %6, ptr %7, align 8, !tbaa !59
  %8 = getelementptr i8, ptr %1, i64 100
  %.val.i = load i32, ptr %8, align 4, !tbaa !21
  %9 = icmp sgt i32 %.val.i, 0
  br i1 %9, label %.lr.ph.i, label %Abc_SclCountValidCells.exit

.lr.ph.i:                                         ; preds = %3
  %10 = getelementptr i8, ptr %1, i64 104
  %.val10.i = load ptr, ptr %10, align 8, !tbaa !19
  %wide.trip.count.i = zext nneg i32 %.val.i to i64
  br label %11

11:                                               ; preds = %20, %.lr.ph.i
  %indvars.iv.i = phi i64 [ 0, %.lr.ph.i ], [ %indvars.iv.next.i, %20 ]
  %.012.i = phi i32 [ 0, %.lr.ph.i ], [ %.1.i, %20 ]
  %12 = getelementptr inbounds nuw ptr, ptr %.val10.i, i64 %indvars.iv.i
  %13 = load ptr, ptr %12, align 8, !tbaa !22
  %14 = getelementptr inbounds nuw i8, ptr %13, i64 16
  %15 = load i32, ptr %14, align 8, !tbaa !100
  %.not.i = icmp eq i32 %15, 0
  br i1 %.not.i, label %16, label %20

16:                                               ; preds = %11
  %17 = getelementptr inbounds nuw i8, ptr %13, i64 20
  %18 = load i32, ptr %17, align 4, !tbaa !101
  %.not9.i = icmp eq i32 %18, 0
  %19 = zext i1 %.not9.i to i32
  %spec.select.i = add nsw i32 %.012.i, %19
  br label %20

20:                                               ; preds = %16, %11
  %.1.i = phi i32 [ %.012.i, %11 ], [ %spec.select.i, %16 ]
  %indvars.iv.next.i = add nuw nsw i64 %indvars.iv.i, 1
  %exitcond.not.i = icmp eq i64 %indvars.iv.next.i, %wide.trip.count.i
  br i1 %exitcond.not.i, label %Abc_SclCountValidCells.exit, label %11, !llvm.loop !102

Abc_SclCountValidCells.exit:                      ; preds = %20, %3
  %.0.lcssa.i = phi i32 [ 0, %3 ], [ %.1.i, %20 ]
  tail call fastcc void @Abc_SclWriteLibrary(ptr noundef nonnull %4, ptr noundef %0, i32 noundef %.0.lcssa.i, i32 noundef %2)
  %.not = icmp eq i32 %2, 0
  %21 = select i1 %.not, i32 0, i32 2
  tail call fastcc void @Abc_SclWriteLibraryCellsOnly(ptr noundef nonnull %4, ptr noundef %1, i32 noundef %21)
  %22 = tail call ptr @Abc_SclReadFromStr(ptr noundef nonnull %4)
  %23 = getelementptr inbounds nuw i8, ptr %0, i64 8
  %24 = load ptr, ptr %23, align 8, !tbaa !99
  %.not.i21 = icmp eq ptr %24, null
  br i1 %.not.i21, label %Abc_UtilStrsav.exit, label %25

25:                                               ; preds = %Abc_SclCountValidCells.exit
  %26 = tail call i64 @strlen(ptr noundef nonnull readonly dereferenceable(1) %24) #20
  %27 = add i64 %26, 1
  %28 = tail call noalias ptr @malloc(i64 noundef %27) #21
  %29 = tail call ptr @strcpy(ptr noundef nonnull dereferenceable(1) %28, ptr noundef nonnull readonly dereferenceable(1) %24) #19
  br label %Abc_UtilStrsav.exit

Abc_UtilStrsav.exit:                              ; preds = %Abc_SclCountValidCells.exit, %25
  %30 = phi ptr [ %28, %25 ], [ null, %Abc_SclCountValidCells.exit ]
  %31 = getelementptr inbounds nuw i8, ptr %22, i64 8
  store ptr %30, ptr %31, align 8, !tbaa !99
  %32 = load ptr, ptr %0, align 8, !tbaa !3
  %33 = tail call i64 @strlen(ptr noundef nonnull dereferenceable(1) %32) #20
  %34 = load ptr, ptr %1, align 8, !tbaa !3
  %35 = tail call i64 @strlen(ptr noundef nonnull dereferenceable(1) %34) #20
  %36 = add i64 %33, 10
  %37 = add i64 %36, %35
  %38 = tail call noalias ptr @malloc(i64 noundef %37) #21
  store ptr %38, ptr %22, align 8, !tbaa !3
  %39 = load ptr, ptr %0, align 8, !tbaa !3
  %40 = load ptr, ptr %1, align 8, !tbaa !3
  %41 = tail call i32 (ptr, ptr, ...) @sprintf(ptr noundef nonnull dereferenceable(1) %38, ptr noundef nonnull dereferenceable(1) @.str.6, ptr noundef %39, ptr noundef %40) #19
  %42 = load ptr, ptr %7, align 8, !tbaa !59
  %.not.i22 = icmp eq ptr %42, null
  br i1 %.not.i22, label %Vec_StrFree.exit, label %43

43:                                               ; preds = %Abc_UtilStrsav.exit
  tail call void @free(ptr noundef nonnull %42) #19
  br label %Vec_StrFree.exit

Vec_StrFree.exit:                                 ; preds = %Abc_UtilStrsav.exit, %43
  tail call void @free(ptr noundef nonnull %4) #19
  %44 = load ptr, ptr %0, align 8, !tbaa !3
  %45 = load ptr, ptr %1, align 8, !tbaa !3
  %46 = tail call i32 (ptr, ...) @printf(ptr noundef nonnull dereferenceable(1) @.str.7, ptr noundef %44, i32 noundef %.0.lcssa.i, ptr noundef %45)
  ret ptr %22
}